; ModuleID = '53/555.c'
source_filename = "53/555.c"
target datalayout = "e-m:e-p270:32:32-p271:32:32-p272:64:64-i64:64-f80:128-n8:16:32:64-S128"
target triple = "x86_64-pc-linux-gnu"

@.str = private unnamed_addr constant [3 x i8] c"%d\00", align 1
@.str.1 = private unnamed_addr constant [4 x i8] c"%d,\00", align 1

; Function Attrs: noinline nounwind uwtable
define dso_local void @main() #0 {
  %1 = alloca i32, align 4
  %2 = alloca [301 x i32], align 16
  %3 = alloca i32, align 4
  %4 = alloca [301 x i32], align 16
  %5 = alloca i32, align 4
  %6 = alloca i32, align 4
  %7 = alloca i32, align 4
  %8 = alloca i32, align 4
  %9 = alloca i32, align 4
  %10 = bitcast [301 x i32]* %2 to i8*
  call void @llvm.memset.p0i8.i64(i8* align 16 %10, i8 0, i64 1204, i1 false)
  %11 = bitcast [301 x i32]* %4 to i8*
  call void @llvm.memset.p0i8.i64(i8* align 16 %11, i8 0, i64 1204, i1 false)
  store i32 1, i32* %5, align 4
  store i32 1, i32* %6, align 4
  %12 = call i32 (i8*, ...) @__isoc99_scanf(i8* getelementptr inbounds ([3 x i8], [3 x i8]* @.str, i64 0, i64 0), i32* %1)
  store i32 1, i32* %3, align 4
  br label %13

13:                                               ; preds = %22, %0
  %14 = load i32, i32* %3, align 4
  %15 = load i32, i32* %1, align 4
  %16 = icmp sle i32 %14, %15
  br i1 %16, label %17, label %25

17:                                               ; preds = %13
  %18 = load i32, i32* %3, align 4
  %19 = sext i32 %18 to i64
  %20 = getelementptr inbounds [301 x i32], [301 x i32]* %2, i64 0, i64 %19
  %21 = call i32 (i8*, ...) @__isoc99_scanf(i8* getelementptr inbounds ([3 x i8], [3 x i8]* @.str, i64 0, i64 0), i32* %20)
  br label %22

22:                                               ; preds = %17
  %23 = load i32, i32* %3, align 4
  %24 = add nsw i32 %23, 1
  store i32 %24, i32* %3, align 4
  br label %13

25:                                               ; preds = %13
  store i32 1, i32* %3, align 4
  br label %26

26:                                               ; preds = %64, %25
  %27 = load i32, i32* %3, align 4
  %28 = load i32, i32* %1, align 4
  %29 = icmp sle i32 %27, %28
  br i1 %29, label %30, label %67

30:                                               ; preds = %26
  store i32 1, i32* %5, align 4
  store i32 1, i32* %7, align 4
  br label %31

31:                                               ; preds = %47, %30
  %32 = load i32, i32* %7, align 4
  %33 = load i32, i32* %3, align 4
  %34 = icmp sle i32 %32, %33
  br i1 %34, label %35, label %50

35:                                               ; preds = %31
  %36 = load i32, i32* %7, align 4
  %37 = sext i32 %36 to i64
  %38 = getelementptr inbounds [301 x i32], [301 x i32]* %4, i64 0, i64 %37
  %39 = load i32, i32* %38, align 4
  %40 = load i32, i32* %3, align 4
  %41 = sext i32 %40 to i64
  %42 = getelementptr inbounds [301 x i32], [301 x i32]* %2, i64 0, i64 %41
  %43 = load i32, i32* %42, align 4
  %44 = icmp eq i32 %39, %43
  br i1 %44, label %45, label %46

45:                                               ; preds = %35
  store i32 0, i32* %5, align 4
  br label %50

46:                                               ; preds = %35
  br label %47

47:                                               ; preds = %46
  %48 = load i32, i32* %7, align 4
  %49 = add nsw i32 %48, 1
  store i32 %49, i32* %7, align 4
  br label %31

50:                                               ; preds = %45, %31
  %51 = load i32, i32* %5, align 4
  %52 = icmp eq i32 %51, 1
  br i1 %52, label %53, label %63

53:                                               ; preds = %50
  %54 = load i32, i32* %3, align 4
  %55 = sext i32 %54 to i64
  %56 = getelementptr inbounds [301 x i32], [301 x i32]* %2, i64 0, i64 %55
  %57 = load i32, i32* %56, align 4
  %58 = load i32, i32* %6, align 4
  %59 = sext i32 %58 to i64
  %60 = getelementptr inbounds [301 x i32], [301 x i32]* %4, i64 0, i64 %59
  store i32 %57, i32* %60, align 4
  %61 = load i32, i32* %6, align 4
  %62 = add nsw i32 %61, 1
  store i32 %62, i32* %6, align 4
  br label %63

63:                                               ; preds = %53, %50
  br label %64

64:                                               ; preds = %63
  %65 = load i32, i32* %3, align 4
  %66 = add nsw i32 %65, 1
  store i32 %66, i32* %3, align 4
  br label %26

67:                                               ; preds = %26
  store i32 1, i32* %3, align 4
  br label %68

68:                                               ; preds = %79, %67
  %69 = load i32, i32* %3, align 4
  %70 = load i32, i32* %6, align 4
  %71 = sub nsw i32 %70, 1
  %72 = icmp slt i32 %69, %71
  br i1 %72, label %73, label %82

73:                                               ; preds = %68
  %74 = load i32, i32* %3, align 4
  %75 = sext i32 %74 to i64
  %76 = getelementptr inbounds [301 x i32], [301 x i32]* %4, i64 0, i64 %75
  %77 = load i32, i32* %76, align 4
  %78 = call i32 (i8*, ...) @printf(i8* getelementptr inbounds ([4 x i8], [4 x i8]* @.str.1, i64 0, i64 0), i32 %77)
  br label %79

79:                                               ; preds = %73
  %80 = load i32, i32* %3, align 4
  %81 = add nsw i32 %80, 1
  store i32 %81, i32* %3, align 4
  br label %68

82:                                               ; preds = %68
  %83 = load i32, i32* %6, align 4
  %84 = sub nsw i32 %83, 1
  %85 = sext i32 %84 to i64
  %86 = getelementptr inbounds [301 x i32], [301 x i32]* %4, i64 0, i64 %85
  %87 = load i32, i32* %86, align 4
  %88 = call i32 (i8*, ...) @printf(i8* getelementptr inbounds ([3 x i8], [3 x i8]* @.str, i64 0, i64 0), i32 %87)
  ret void
}

; Function Attrs: argmemonly nounwind willreturn
declare void @llvm.memset.p0i8.i64(i8* nocapture writeonly, i8, i64, i1 immarg) #1

declare dso_local i32 @__isoc99_scanf(i8*, ...) #2

declare dso_local i32 @printf(i8*, ...) #2


!llvm.module.flags = !{!0}
!llvm.ident = !{!1}

!0 = !{i32 1, !"wchar_size", i32 4}
!1 = !{!"clang version 10.0.0-4ubuntu1 "}
