; ModuleID = 'source-C-CXX/52/555.c'
source_filename = "source-C-CXX/52/555.c"
target datalayout = "e-m:e-p270:32:32-p271:32:32-p272:64:64-i64:64-f80:128-n8:16:32:64-S128"
target triple = "x86_64-pc-linux-gnu"

@.str = private unnamed_addr constant [3 x i8] c"%d\00", align 1
@.str.1 = private unnamed_addr constant [4 x i8] c"%d,\00", align 1

; Function Attrs: nofree nounwind sspstrong uwtable
define dso_local void @main() local_unnamed_addr #0 {
  %1 = alloca i32, align 4
  %2 = alloca [301 x i32], align 16
  %3 = alloca [301 x i32], align 16
  %4 = bitcast i32* %1 to i8*
  call void @llvm.lifetime.start.p0i8(i64 4, i8* nonnull %4) #4
  %5 = bitcast [301 x i32]* %2 to i8*
  call void @llvm.lifetime.start.p0i8(i64 1204, i8* nonnull %5) #4
  call void @llvm.memset.p0i8.i64(i8* noundef nonnull align 16 dereferenceable(1204) %5, i8 0, i64 1204, i1 false)
  %6 = bitcast [301 x i32]* %3 to i8*
  call void @llvm.lifetime.start.p0i8(i64 1204, i8* nonnull %6) #4
  call void @llvm.memset.p0i8.i64(i8* noundef nonnull align 16 dereferenceable(1204) %6, i8 0, i64 1204, i1 false)
  %7 = call i32 (i8*, ...) @__isoc99_scanf(i8* getelementptr inbounds ([3 x i8], [3 x i8]* @.str, i64 0, i64 0), i32* nonnull %1)
  %8 = load i32, i32* %1, align 4, !tbaa !5
  %9 = icmp slt i32 %8, 1
  br i1 %9, label %58, label %15

10:                                               ; preds = %15
  %11 = icmp slt i32 %20, 1
  br i1 %11, label %58, label %12

12:                                               ; preds = %10
  %13 = add nuw i32 %20, 1
  %14 = zext i32 %13 to i64
  br label %23

15:                                               ; preds = %0, %15
  %16 = phi i64 [ %19, %15 ], [ 1, %0 ]
  %17 = getelementptr inbounds [301 x i32], [301 x i32]* %2, i64 0, i64 %16
  %18 = call i32 (i8*, ...) @__isoc99_scanf(i8* getelementptr inbounds ([3 x i8], [3 x i8]* @.str, i64 0, i64 0), i32* nonnull %17)
  %19 = add nuw nsw i64 %16, 1
  %20 = load i32, i32* %1, align 4, !tbaa !5
  %21 = sext i32 %20 to i64
  %22 = icmp slt i64 %16, %21
  br i1 %22, label %15, label %10, !llvm.loop !9

23:                                               ; preds = %12, %46
  %24 = phi i64 [ 1, %12 ], [ %48, %46 ]
  %25 = phi i64 [ 2, %12 ], [ %49, %46 ]
  %26 = phi i32 [ 1, %12 ], [ %47, %46 ]
  %27 = getelementptr inbounds [301 x i32], [301 x i32]* %2, i64 0, i64 %24
  %28 = load i32, i32* %27, align 4, !tbaa !5
  br label %37

29:                                               ; preds = %46
  %30 = add i32 %47, -1
  %31 = icmp sgt i32 %47, 2
  br i1 %31, label %32, label %58

32:                                               ; preds = %29
  %33 = zext i32 %30 to i64
  br label %51

34:                                               ; preds = %37
  %35 = add nuw nsw i64 %38, 1
  %36 = icmp eq i64 %35, %25
  br i1 %36, label %42, label %37, !llvm.loop !11

37:                                               ; preds = %23, %34
  %38 = phi i64 [ 1, %23 ], [ %35, %34 ]
  %39 = getelementptr inbounds [301 x i32], [301 x i32]* %3, i64 0, i64 %38
  %40 = load i32, i32* %39, align 4, !tbaa !5
  %41 = icmp eq i32 %40, %28
  br i1 %41, label %46, label %34

42:                                               ; preds = %34
  %43 = sext i32 %26 to i64
  %44 = getelementptr inbounds [301 x i32], [301 x i32]* %3, i64 0, i64 %43
  store i32 %28, i32* %44, align 4, !tbaa !5
  %45 = add nsw i32 %26, 1
  br label %46

46:                                               ; preds = %37, %42
  %47 = phi i32 [ %45, %42 ], [ %26, %37 ]
  %48 = add nuw nsw i64 %24, 1
  %49 = add nuw nsw i64 %25, 1
  %50 = icmp eq i64 %48, %14
  br i1 %50, label %29, label %23, !llvm.loop !12

51:                                               ; preds = %32, %51
  %52 = phi i64 [ 1, %32 ], [ %56, %51 ]
  %53 = getelementptr inbounds [301 x i32], [301 x i32]* %3, i64 0, i64 %52
  %54 = load i32, i32* %53, align 4, !tbaa !5
  %55 = call i32 (i8*, ...) @printf(i8* nonnull dereferenceable(1) getelementptr inbounds ([4 x i8], [4 x i8]* @.str.1, i64 0, i64 0), i32 %54)
  %56 = add nuw nsw i64 %52, 1
  %57 = icmp eq i64 %56, %33
  br i1 %57, label %58, label %51, !llvm.loop !13

58:                                               ; preds = %51, %0, %10, %29
  %59 = phi i32 [ %30, %29 ], [ 0, %10 ], [ 0, %0 ], [ %30, %51 ]
  %60 = sext i32 %59 to i64
  %61 = getelementptr inbounds [301 x i32], [301 x i32]* %3, i64 0, i64 %60
  %62 = load i32, i32* %61, align 4, !tbaa !5
  %63 = call i32 (i8*, ...) @printf(i8* nonnull dereferenceable(1) getelementptr inbounds ([3 x i8], [3 x i8]* @.str, i64 0, i64 0), i32 %62)
  call void @llvm.lifetime.end.p0i8(i64 1204, i8* nonnull %6) #4
  call void @llvm.lifetime.end.p0i8(i64 1204, i8* nonnull %5) #4
  call void @llvm.lifetime.end.p0i8(i64 4, i8* nonnull %4) #4
  ret void
}

; Function Attrs: argmemonly mustprogress nofree nosync nounwind willreturn
declare void @llvm.lifetime.start.p0i8(i64 immarg, i8* nocapture) #1

; Function Attrs: argmemonly mustprogress nofree nounwind willreturn writeonly
declare void @llvm.memset.p0i8.i64(i8* nocapture writeonly, i8, i64, i1 immarg) #2

; Function Attrs: nofree nounwind
declare noundef i32 @__isoc99_scanf(i8* nocapture noundef readonly, ...) local_unnamed_addr #3

; Function Attrs: nofree nounwind
declare noundef i32 @printf(i8* nocapture noundef readonly, ...) local_unnamed_addr #3

; Function Attrs: argmemonly mustprogress nofree nosync nounwind willreturn
declare void @llvm.lifetime.end.p0i8(i64 immarg, i8* nocapture) #1


!llvm.module.flags = !{!0, !1, !2, !3}
!llvm.ident = !{!4}

!0 = !{i32 1, !"wchar_size", i32 4}
!1 = !{i32 7, !"PIC Level", i32 2}
!2 = !{i32 7, !"PIE Level", i32 2}
!3 = !{i32 7, !"uwtable", i32 1}
!4 = !{!"clang version 13.0.0"}
!5 = !{!6, !6, i64 0}
!6 = !{!"int", !7, i64 0}
!7 = !{!"omnipotent char", !8, i64 0}
!8 = !{!"Simple C/C++ TBAA"}
!9 = distinct !{!9, !10}
!10 = !{!"llvm.loop.mustprogress"}
!11 = distinct !{!11, !10}
!12 = distinct !{!12, !10}
!13 = distinct !{!13, !10}
